; Function Attrs: mustprogress uwtable
define void @_ZN6icu_7517UCharsTrieBuilderC2ER10UErrorCode(ptr noundef nonnull align 8 dereferenceable(112) %this, ptr nocapture nonnull readnone align 4 %0) unnamed_addr #0 align 2 personality ptr @__gxx_personality_v0 {
invoke.cont:
  tail call void @_ZN6icu_7517StringTrieBuilderC2Ev(ptr noundef nonnull align 8 dereferenceable(16) %this)
  store ptr getelementptr inbounds ({ [22 x ptr] }, ptr @_ZTVN6icu_7517UCharsTrieBuilderE, i64 0, i32 0, i64 2), ptr %this, align 8
  %strings = getelementptr inbounds i8, ptr %this, i64 16
  store ptr getelementptr inbounds ({ [13 x ptr] }, ptr @_ZTVN6icu_7513UnicodeStringE, i64 0, i32 0, i64 2), ptr %strings, align 8
  %fUnion2.i = getelementptr inbounds i8, ptr %this, i64 24
  store i16 2, ptr %fUnion2.i, align 8
  %elements = getelementptr inbounds i8, ptr %this, i64 80
  tail call void @llvm.memset.p0.i64(ptr noundef nonnull align 8 dereferenceable(32) %elements, i8 0, i64 32, i1 false)
  ret void
}